target datalayout = "e-m:e-p270:32:32-p271:32:32-p272:64:64-i64:64-i128:128-f80:128-n8:16:32:64-S128"
target triple = "x86_64-pc-linux-gnu"

; Function Attrs: nounwind uwtable
define internal i32 @quant(i32 noundef %0, i32 noundef %1) #1 {
  %3 = alloca i32, align 4
  %4 = alloca i32, align 4
  store i32 %0, ptr %3, align 4, !tbaa !36
  store i32 %1, ptr %4, align 4, !tbaa !36
  %5 = load i32, ptr %3, align 4, !tbaa !36
  %6 = load i32, ptr %4, align 4, !tbaa !36
  %7 = mul nsw i32 %5, %6
  %8 = add nsw i32 %7, 8
  %9 = ashr i32 %8, 4
  ret i32 %9
}

; Function Attrs: nounwind uwtable
define internal void @decode_2x2(ptr noundef %0, ptr noundef %1, ptr noundef %2, i32 noundef %3, i32 noundef %4, i32 noundef %5, i32 noundef %6) #1 {
  %8 = alloca ptr, align 8
  %9 = alloca ptr, align 8
  %10 = alloca ptr, align 8
  %11 = alloca i32, align 4
  %12 = alloca i32, align 4
  %13 = alloca i32, align 4
  %14 = alloca i32, align 4
  %15 = alloca ptr, align 8
  %16 = alloca i32, align 4
  store ptr %0, ptr %8, align 8, !tbaa !92
  store ptr %1, ptr %9, align 8, !tbaa !87
  store ptr %2, ptr %10, align 8, !tbaa !204
  store i32 %3, ptr %11, align 4, !tbaa !36
  store i32 %4, ptr %12, align 4, !tbaa !36
  store i32 %5, ptr %13, align 4, !tbaa !36
  store i32 %6, ptr %14, align 4, !tbaa !36
  call void @llvm.lifetime.start.p0(i64 8, ptr %15) #11
  %17 = load i32, ptr %13, align 4, !tbaa !36
  %18 = icmp ne i32 %17, 0
  br i1 %18, label %20, label %19

19:                                               ; preds = %7
  store i32 1, ptr %16, align 4
  br label %110

20:                                               ; preds = %7
  %21 = load i32, ptr %13, align 4, !tbaa !36
  %22 = sub nsw i32 %21, 1
  %23 = sext i32 %22 to i64
  %24 = getelementptr inbounds [107 x [4 x i8]], ptr @rv60_dsc_to_lx, i64 0, i64 %23
  %25 = getelementptr inbounds [4 x i8], ptr %24, i64 0, i64 0
  store ptr %25, ptr %15, align 8, !tbaa !46
  %26 = load ptr, ptr %8, align 8, !tbaa !92
  %27 = load ptr, ptr %9, align 8, !tbaa !87
  %28 = load ptr, ptr %15, align 8, !tbaa !46
  %29 = getelementptr inbounds i8, ptr %28, i64 0
  %30 = load i8, ptr %29, align 1, !tbaa !48
  %31 = zext i8 %30 to i32
  %32 = call i32 @decode_coeff(ptr noundef %26, ptr noundef %27, i32 noundef %31, i32 noundef 3)
  %33 = load i32, ptr %14, align 4, !tbaa !36
  %34 = call i32 @quant(i32 noundef %32, i32 noundef %33)
  %35 = trunc i32 %34 to i16
  %36 = load ptr, ptr %10, align 8, !tbaa !204
  %37 = getelementptr inbounds i16, ptr %36, i64 0
  store i16 %35, ptr %37, align 2, !tbaa !153
  %38 = load i32, ptr %12, align 4, !tbaa !36
  %39 = icmp ne i32 %38, 0
  br i1 %39, label %67, label %40

40:                                               ; preds = %20
  %41 = load ptr, ptr %8, align 8, !tbaa !92
  %42 = load ptr, ptr %9, align 8, !tbaa !87
  %43 = load ptr, ptr %15, align 8, !tbaa !46
  %44 = getelementptr inbounds i8, ptr %43, i64 1
  %45 = load i8, ptr %44, align 1, !tbaa !48
  %46 = zext i8 %45 to i32
  %47 = call i32 @decode_coeff(ptr noundef %41, ptr noundef %42, i32 noundef %46, i32 noundef 2)
  %48 = load i32, ptr %14, align 4, !tbaa !36
  %49 = call i32 @quant(i32 noundef %47, i32 noundef %48)
  %50 = trunc i32 %49 to i16
  %51 = load ptr, ptr %10, align 8, !tbaa !204
  %52 = getelementptr inbounds i16, ptr %51, i64 1
  store i16 %50, ptr %52, align 2, !tbaa !153
  %53 = load ptr, ptr %8, align 8, !tbaa !92
  %54 = load ptr, ptr %9, align 8, !tbaa !87
  %55 = load ptr, ptr %15, align 8, !tbaa !46
  %56 = getelementptr inbounds i8, ptr %55, i64 2
  %57 = load i8, ptr %56, align 1, !tbaa !48
  %58 = zext i8 %57 to i32
  %59 = call i32 @decode_coeff(ptr noundef %53, ptr noundef %54, i32 noundef %58, i32 noundef 2)
  %60 = load i32, ptr %14, align 4, !tbaa !36
  %61 = call i32 @quant(i32 noundef %59, i32 noundef %60)
  %62 = trunc i32 %61 to i16
  %63 = load ptr, ptr %10, align 8, !tbaa !204
  %64 = load i32, ptr %11, align 4, !tbaa !36
  %65 = sext i32 %64 to i64
  %66 = getelementptr inbounds i16, ptr %63, i64 %65
  store i16 %62, ptr %66, align 2, !tbaa !153
  br label %94

67:                                               ; preds = %20
  %68 = load ptr, ptr %8, align 8, !tbaa !92
  %69 = load ptr, ptr %9, align 8, !tbaa !87
  %70 = load ptr, ptr %15, align 8, !tbaa !46
  %71 = getelementptr inbounds i8, ptr %70, i64 1
  %72 = load i8, ptr %71, align 1, !tbaa !48
  %73 = zext i8 %72 to i32
  %74 = call i32 @decode_coeff(ptr noundef %68, ptr noundef %69, i32 noundef %73, i32 noundef 2)
  %75 = load i32, ptr %14, align 4, !tbaa !36
  %76 = call i32 @quant(i32 noundef %74, i32 noundef %75)
  %77 = trunc i32 %76 to i16
  %78 = load ptr, ptr %10, align 8, !tbaa !204
  %79 = load i32, ptr %11, align 4, !tbaa !36
  %80 = sext i32 %79 to i64
  %81 = getelementptr inbounds i16, ptr %78, i64 %80
  store i16 %77, ptr %81, align 2, !tbaa !153
  %82 = load ptr, ptr %8, align 8, !tbaa !92
  %83 = load ptr, ptr %9, align 8, !tbaa !87
  %84 = load ptr, ptr %15, align 8, !tbaa !46
  %85 = getelementptr inbounds i8, ptr %84, i64 2
  %86 = load i8, ptr %85, align 1, !tbaa !48
  %87 = zext i8 %86 to i32
  %88 = call i32 @decode_coeff(ptr noundef %82, ptr noundef %83, i32 noundef %87, i32 noundef 2)
  %89 = load i32, ptr %14, align 4, !tbaa !36
  %90 = call i32 @quant(i32 noundef %88, i32 noundef %89)
  %91 = trunc i32 %90 to i16
  %92 = load ptr, ptr %10, align 8, !tbaa !204
  %93 = getelementptr inbounds i16, ptr %92, i64 1
  store i16 %91, ptr %93, align 2, !tbaa !153
  br label %94

94:                                               ; preds = %67, %40
  %95 = load ptr, ptr %8, align 8, !tbaa !92
  %96 = load ptr, ptr %9, align 8, !tbaa !87
  %97 = load ptr, ptr %15, align 8, !tbaa !46
  %98 = getelementptr inbounds i8, ptr %97, i64 3
  %99 = load i8, ptr %98, align 1, !tbaa !48
  %100 = zext i8 %99 to i32
  %101 = call i32 @decode_coeff(ptr noundef %95, ptr noundef %96, i32 noundef %100, i32 noundef 2)
  %102 = load i32, ptr %14, align 4, !tbaa !36
  %103 = call i32 @quant(i32 noundef %101, i32 noundef %102)
  %104 = trunc i32 %103 to i16
  %105 = load ptr, ptr %10, align 8, !tbaa !204
  %106 = load i32, ptr %11, align 4, !tbaa !36
  %107 = add nsw i32 %106, 1
  %108 = sext i32 %107 to i64
  %109 = getelementptr inbounds i16, ptr %105, i64 %108
  store i16 %104, ptr %109, align 2, !tbaa !153
  store i32 0, ptr %16, align 4
  br label %110

110:                                              ; preds = %94, %19
  call void @llvm.lifetime.end.p0(i64 8, ptr %15) #11
  %111 = load i32, ptr %16, align 4
  switch i32 %111, label %113 [
    i32 0, label %112
    i32 1, label %112
  ]

112:                                              ; preds = %110, %110
  ret void

113:                                              ; preds = %110
  unreachable
}