; Function Attrs: mustprogress nofree norecurse nosync nounwind willreturn memory(read, argmem: readwrite, inaccessiblemem: none) uwtable
define internal fastcc void @decode_2x2(ptr noundef nonnull captures(none) %0, ptr noundef readonly captures(none) %1, ptr noundef nonnull writeonly captures(none) %2, i32 noundef range(i32 4, 17) %3, i32 noundef range(i32 0, 2) %4, i32 noundef range(i32 -32768, 32768) %5, i32 noundef range(i32 0, 65536) %6) unnamed_addr #8 {
  %.not = icmp eq i32 %5, 0
  br i1 %.not, label %62, label %8

8:                                                ; preds = %7
  %9 = add nsw i32 %5, -1
  %10 = sext i32 %9 to i64
  %11 = getelementptr inbounds [107 x [4 x i8]], ptr @rv60_dsc_to_lx, i64 0, i64 %10
  %12 = load i8, ptr %11, align 4, !tbaa !42
  %13 = zext i8 %12 to i32
  %14 = tail call fastcc i32 @decode_coeff(ptr noundef %0, ptr noundef %1, i32 noundef %13, i32 noundef 3)
  %15 = mul nsw i32 %14, %6
  %16 = add nsw i32 %15, 8
  %17 = lshr i32 %16, 4
  %18 = trunc i32 %17 to i16
  store i16 %18, ptr %2, align 2, !tbaa !151
  %.not35 = icmp eq i32 %4, 0
  %19 = getelementptr inbounds nuw i8, ptr %11, i64 1
  %20 = load i8, ptr %19, align 1, !tbaa !42
  %21 = zext i8 %20 to i32
  %22 = tail call fastcc i32 @decode_coeff(ptr noundef %0, ptr noundef %1, i32 noundef %21, i32 noundef 2)
  %23 = mul nsw i32 %22, %6
  %24 = add nsw i32 %23, 8
  %25 = lshr i32 %24, 4
  %26 = trunc i32 %25 to i16
  br i1 %.not35, label %27, label %39

27:                                               ; preds = %8
  %28 = getelementptr inbounds nuw i8, ptr %2, i64 2
  store i16 %26, ptr %28, align 2, !tbaa !151
  %29 = getelementptr inbounds nuw i8, ptr %11, i64 2
  %30 = load i8, ptr %29, align 2, !tbaa !42
  %31 = zext i8 %30 to i32
  %32 = tail call fastcc i32 @decode_coeff(ptr noundef %0, ptr noundef %1, i32 noundef %31, i32 noundef 2)
  %33 = mul nsw i32 %32, %6
  %34 = add nsw i32 %33, 8
  %35 = lshr i32 %34, 4
  %36 = trunc i32 %35 to i16
  %37 = zext nneg i32 %3 to i64
  %38 = getelementptr inbounds nuw i16, ptr %2, i64 %37
  store i16 %36, ptr %38, align 2, !tbaa !151
  br label %51

39:                                               ; preds = %8
  %40 = zext nneg i32 %3 to i64
  %41 = getelementptr inbounds nuw i16, ptr %2, i64 %40
  store i16 %26, ptr %41, align 2, !tbaa !151
  %42 = getelementptr inbounds nuw i8, ptr %11, i64 2
  %43 = load i8, ptr %42, align 2, !tbaa !42
  %44 = zext i8 %43 to i32
  %45 = tail call fastcc i32 @decode_coeff(ptr noundef %0, ptr noundef %1, i32 noundef %44, i32 noundef 2)
  %46 = mul nsw i32 %45, %6
  %47 = add nsw i32 %46, 8
  %48 = lshr i32 %47, 4
  %49 = trunc i32 %48 to i16
  %50 = getelementptr inbounds nuw i8, ptr %2, i64 2
  store i16 %49, ptr %50, align 2, !tbaa !151
  br label %51

51:                                               ; preds = %39, %27
  %.pre-phi = phi i64 [ %40, %39 ], [ %37, %27 ]
  %52 = getelementptr inbounds nuw i8, ptr %11, i64 3
  %53 = load i8, ptr %52, align 1, !tbaa !42
  %54 = zext i8 %53 to i32
  %55 = tail call fastcc i32 @decode_coeff(ptr noundef %0, ptr noundef %1, i32 noundef %54, i32 noundef 2)
  %56 = mul nsw i32 %55, %6
  %57 = add nsw i32 %56, 8
  %58 = lshr i32 %57, 4
  %59 = trunc i32 %58 to i16
  %60 = getelementptr inbounds nuw i16, ptr %2, i64 %.pre-phi
  %61 = getelementptr inbounds nuw i8, ptr %60, i64 2
  store i16 %59, ptr %61, align 2, !tbaa !151
  br label %62

62:                                               ; preds = %7, %51
  ret void
}